; Function Attrs: mustprogress uwtable
define void @_ZN6icu_778EraRulesC2ERNS_11LocalMemoryIiEEi(ptr noundef nonnull align 8 dereferenceable(16) initializes((0, 12)) %0, ptr noundef nonnull align 8 captures(none) dereferenceable(8) %1, i32 noundef %2) unnamed_addr #0 align 2 personality ptr @__gxx_personality_v0 {
  store ptr null, ptr %0, align 8, !tbaa !3
  %4 = getelementptr inbounds nuw i8, ptr %0, i64 8
  store i32 %2, ptr %4, align 8, !tbaa !9
  invoke void @uprv_free_77(ptr noundef null)
          to label %_ZN6icu_7711LocalMemoryIiEaSEOS1_.exit unwind label %5

5:                                                ; preds = %3
  %6 = landingpad { ptr, i32 }
          catch ptr null
  %7 = extractvalue { ptr, i32 } %6, 0
  tail call void @__clang_call_terminate(ptr %7) #14
  unreachable

_ZN6icu_7711LocalMemoryIiEaSEOS1_.exit:           ; preds = %3
  %8 = load ptr, ptr %1, align 8, !tbaa !3
  store ptr %8, ptr %0, align 8, !tbaa !3
  store ptr null, ptr %1, align 8, !tbaa !3
  invoke void @_ZN6icu_778EraRules14initCurrentEraEv(ptr noundef nonnull align 8 dereferenceable(16) %0)
          to label %9 unwind label %10

9:                                                ; preds = %_ZN6icu_7711LocalMemoryIiEaSEOS1_.exit
  ret void

10:                                               ; preds = %_ZN6icu_7711LocalMemoryIiEaSEOS1_.exit
  %11 = landingpad { ptr, i32 }
          cleanup
  tail call void @_ZN6icu_7711LocalMemoryIiED2Ev(ptr noundef nonnull align 8 dereferenceable(8) %0) #15
  resume { ptr, i32 } %11
}